; ModuleID = '11/797.c'
source_filename = "11/797.c"
target datalayout = "e-m:e-p270:32:32-p271:32:32-p272:64:64-i64:64-f80:128-n8:16:32:64-S128"
target triple = "x86_64-pc-linux-gnu"

@__const.main.a = private unnamed_addr constant [13 x i32] [i32 0, i32 31, i32 28, i32 31, i32 30, i32 31, i32 30, i32 31, i32 31, i32 30, i32 31, i32 30, i32 31], align 16
@.str = private unnamed_addr constant [9 x i8] c"%d %d %d\00", align 1
@.str.1 = private unnamed_addr constant [3 x i8] c"%d\00", align 1

; Function Attrs: noinline nounwind uwtable
define dso_local i32 @main() #0 {
  %1 = alloca i32, align 4
  %2 = alloca i32, align 4
  %3 = alloca i32, align 4
  %4 = alloca i32, align 4
  %5 = alloca i32, align 4
  %6 = alloca [13 x i32], align 16
  %7 = alloca i32, align 4
  store i32 0, i32* %1, align 4
  %8 = bitcast [13 x i32]* %6 to i8*
  call void @llvm.memcpy.p0i8.p0i8.i64(i8* align 16 %8, i8* align 16 bitcast ([13 x i32]* @__const.main.a to i8*), i64 52, i1 false)
  store i32 0, i32* %7, align 4
  %9 = call i32 (i8*, ...) @__isoc99_scanf(i8* getelementptr inbounds ([9 x i8], [9 x i8]* @.str, i64 0, i64 0), i32* %3, i32* %4, i32* %5)
  store i32 0, i32* %2, align 4
  br label %10

10:                                               ; preds = %22, %0
  %11 = load i32, i32* %2, align 4
  %12 = load i32, i32* %4, align 4
  %13 = sub nsw i32 %12, 1
  %14 = icmp sle i32 %11, %13
  br i1 %14, label %15, label %25

15:                                               ; preds = %10
  %16 = load i32, i32* %7, align 4
  %17 = load i32, i32* %2, align 4
  %18 = sext i32 %17 to i64
  %19 = getelementptr inbounds [13 x i32], [13 x i32]* %6, i64 0, i64 %18
  %20 = load i32, i32* %19, align 4
  %21 = add nsw i32 %16, %20
  store i32 %21, i32* %7, align 4
  br label %22

22:                                               ; preds = %15
  %23 = load i32, i32* %2, align 4
  %24 = add nsw i32 %23, 1
  store i32 %24, i32* %2, align 4
  br label %10

25:                                               ; preds = %10
  %26 = load i32, i32* %3, align 4
  %27 = srem i32 %26, 400
  %28 = icmp eq i32 %27, 0
  br i1 %28, label %37, label %29

29:                                               ; preds = %25
  %30 = load i32, i32* %3, align 4
  %31 = srem i32 %30, 4
  %32 = icmp eq i32 %31, 0
  br i1 %32, label %33, label %50

33:                                               ; preds = %29
  %34 = load i32, i32* %3, align 4
  %35 = srem i32 %34, 100
  %36 = icmp ne i32 %35, 0
  br i1 %36, label %37, label %50

37:                                               ; preds = %33, %25
  %38 = load i32, i32* %4, align 4
  %39 = icmp sle i32 %38, 2
  br i1 %39, label %40, label %44

40:                                               ; preds = %37
  %41 = load i32, i32* %7, align 4
  %42 = load i32, i32* %5, align 4
  %43 = add nsw i32 %41, %42
  store i32 %43, i32* %7, align 4
  br label %49

44:                                               ; preds = %37
  %45 = load i32, i32* %7, align 4
  %46 = add nsw i32 %45, 1
  %47 = load i32, i32* %5, align 4
  %48 = add nsw i32 %46, %47
  store i32 %48, i32* %7, align 4
  br label %49

49:                                               ; preds = %44, %40
  br label %54

50:                                               ; preds = %33, %29
  %51 = load i32, i32* %7, align 4
  %52 = load i32, i32* %5, align 4
  %53 = add nsw i32 %51, %52
  store i32 %53, i32* %7, align 4
  br label %54

54:                                               ; preds = %50, %49
  %55 = load i32, i32* %7, align 4
  %56 = call i32 (i8*, ...) @printf(i8* getelementptr inbounds ([3 x i8], [3 x i8]* @.str.1, i64 0, i64 0), i32 %55)
  %57 = call i32 @getchar()
  %58 = call i32 @getchar()
  %59 = call i32 @getchar()
  %60 = load i32, i32* %1, align 4
  ret i32 %60
}

; Function Attrs: argmemonly nounwind willreturn
declare void @llvm.memcpy.p0i8.p0i8.i64(i8* noalias nocapture writeonly, i8* noalias nocapture readonly, i64, i1 immarg) #1

declare dso_local i32 @__isoc99_scanf(i8*, ...) #2

declare dso_local i32 @printf(i8*, ...) #2

declare dso_local i32 @getchar() #2


!llvm.module.flags = !{!0}
!llvm.ident = !{!1}

!0 = !{i32 1, !"wchar_size", i32 4}
!1 = !{!"clang version 10.0.0-4ubuntu1 "}
